; Function Attrs: mustprogress null_pointer_is_valid sspstrong uwtable
define void @_ZN19WiresharkMainWindow33rtpAnalysisDialogRemoveRtpStreamsE5QListIP13_rtpstream_idE(ptr noundef align 8 dereferenceable_or_null(560) %0, ptr noundef readonly captures(none) %1) local_unnamed_addr #0 align 2 personality ptr @__gxx_personality_v0 {
  %3 = alloca %class.QList.330, align 8
  %4 = getelementptr inbounds nuw i8, ptr %0, i64 40
  %5 = getelementptr inbounds nuw i8, ptr %0, i64 272
  %6 = load ptr, ptr %5, align 8
  %7 = tail call noundef ptr @_ZN17RtpAnalysisDialog21openRtpAnalysisDialogER7QWidgetR11CaptureFileP10PacketList(ptr noundef align 8 dereferenceable(40) dereferenceable_or_null(560) %0, ptr noundef nonnull align 8 dereferenceable(48) %4, ptr noundef %6)
  tail call void @_ZN7QWidget4showEv(ptr noundef align 8 dereferenceable_or_null(40) %7)
  %8 = load ptr, ptr %1, align 8
  store ptr %8, ptr %3, align 8
  %9 = getelementptr inbounds nuw i8, ptr %3, i64 8
  %10 = getelementptr inbounds nuw i8, ptr %1, i64 8
  %11 = load ptr, ptr %10, align 8
  store ptr %11, ptr %9, align 8
  %12 = getelementptr inbounds nuw i8, ptr %3, i64 16
  %13 = getelementptr inbounds nuw i8, ptr %1, i64 16
  %14 = load i64, ptr %13, align 8
  store i64 %14, ptr %12, align 8
  %.not.i.i.i = icmp eq ptr %8, null
  br i1 %.not.i.i.i, label %_ZN5QListIP13_rtpstream_idEC2ERKS2_.exit, label %15

15:                                               ; preds = %2
  %16 = atomicrmw add ptr %8, i32 1 seq_cst, align 4
  br label %_ZN5QListIP13_rtpstream_idEC2ERKS2_.exit

_ZN5QListIP13_rtpstream_idEC2ERKS2_.exit:         ; preds = %2, %15
  invoke void @_ZN17RtpAnalysisDialog16removeRtpStreamsE5QListIP13_rtpstream_idE(ptr noundef align 8 dereferenceable_or_null(336) %7, ptr noundef nonnull %3)
          to label %17 unwind label %22

17:                                               ; preds = %_ZN5QListIP13_rtpstream_idEC2ERKS2_.exit
  %18 = load ptr, ptr %3, align 8
  %.not.i.i.i2 = icmp eq ptr %18, null
  br i1 %.not.i.i.i2, label %_ZN5QListIP13_rtpstream_idED2Ev.exit, label %_ZN17QArrayDataPointerIP13_rtpstream_idE5derefEv.exit.i.i

_ZN17QArrayDataPointerIP13_rtpstream_idE5derefEv.exit.i.i: ; preds = %17
  %19 = atomicrmw sub ptr %18, i32 1 seq_cst, align 4
  %.not.i.i = icmp eq i32 %19, 1
  br i1 %.not.i.i, label %20, label %_ZN5QListIP13_rtpstream_idED2Ev.exit

20:                                               ; preds = %_ZN17QArrayDataPointerIP13_rtpstream_idE5derefEv.exit.i.i
  %21 = load ptr, ptr %3, align 8
  call void @_ZN10QArrayData10deallocateEPS_xx(ptr noundef %21, i64 noundef 8, i64 noundef 8) #25
  br label %_ZN5QListIP13_rtpstream_idED2Ev.exit

_ZN5QListIP13_rtpstream_idED2Ev.exit:             ; preds = %17, %_ZN17QArrayDataPointerIP13_rtpstream_idE5derefEv.exit.i.i, %20
  ret void

22:                                               ; preds = %_ZN5QListIP13_rtpstream_idEC2ERKS2_.exit
  %23 = landingpad { ptr, i32 }
          cleanup
  %24 = load ptr, ptr %3, align 8
  %.not.i.i.i3 = icmp eq ptr %24, null
  br i1 %.not.i.i.i3, label %_ZN5QListIP13_rtpstream_idED2Ev.exit6, label %_ZN17QArrayDataPointerIP13_rtpstream_idE5derefEv.exit.i.i4

_ZN17QArrayDataPointerIP13_rtpstream_idE5derefEv.exit.i.i4: ; preds = %22
  %25 = atomicrmw sub ptr %24, i32 1 seq_cst, align 4
  %.not.i.i5 = icmp eq i32 %25, 1
  br i1 %.not.i.i5, label %26, label %_ZN5QListIP13_rtpstream_idED2Ev.exit6

26:                                               ; preds = %_ZN17QArrayDataPointerIP13_rtpstream_idE5derefEv.exit.i.i4
  %27 = load ptr, ptr %3, align 8
  call void @_ZN10QArrayData10deallocateEPS_xx(ptr noundef %27, i64 noundef 8, i64 noundef 8) #25
  br label %_ZN5QListIP13_rtpstream_idED2Ev.exit6

_ZN5QListIP13_rtpstream_idED2Ev.exit6:            ; preds = %22, %_ZN17QArrayDataPointerIP13_rtpstream_idE5derefEv.exit.i.i4, %26
  resume { ptr, i32 } %23
}